target datalayout = "e-m:e-p270:32:32-p271:32:32-p272:64:64-i64:64-i128:128-f80:128-n8:16:32:64-S128"
target triple = "x86_64-pc-linux-gnu"

%struct.decoration = type { ptr, i32, i32, ptr }
%struct.obj_buffer = type { ptr, i64 }

@the_repository = external global ptr, align 8
@.str.24 = private unnamed_addr constant [22 x i8] c"failed to apply delta\00", align 1
@obj_decorate = internal global %struct.decoration zeroinitializer, align 8

; Function Attrs: nounwind uwtable
define internal void @resolve_delta(i32 noundef %0, i32 noundef %1, ptr noundef %2, i64 noundef %3, ptr noundef %4, i64 noundef %5) #0 {
  %7 = alloca i32, align 4
  %8 = alloca i32, align 4
  %9 = alloca ptr, align 8
  %10 = alloca i64, align 8
  %11 = alloca ptr, align 8
  %12 = alloca i64, align 8
  %13 = alloca ptr, align 8
  %14 = alloca i64, align 8
  store i32 %0, ptr %7, align 4, !tbaa !4
  store i32 %1, ptr %8, align 4, !tbaa !4
  store ptr %2, ptr %9, align 8, !tbaa !45
  store i64 %3, ptr %10, align 8, !tbaa !16
  store ptr %4, ptr %11, align 8, !tbaa !45
  store i64 %5, ptr %12, align 8, !tbaa !16
  call void @llvm.lifetime.start.p0(i64 8, ptr %13) #10
  call void @llvm.lifetime.start.p0(i64 8, ptr %14) #10
  %15 = load ptr, ptr %9, align 8, !tbaa !45
  %16 = load i64, ptr %10, align 8, !tbaa !16
  %17 = load ptr, ptr %11, align 8, !tbaa !45
  %18 = load i64, ptr %12, align 8, !tbaa !16
  %19 = call ptr @patch_delta(ptr noundef %15, i64 noundef %16, ptr noundef %17, i64 noundef %18, ptr noundef %14)
  store ptr %19, ptr %13, align 8, !tbaa !45
  %20 = load ptr, ptr %13, align 8, !tbaa !45
  %21 = icmp ne ptr %20, null
  br i1 %21, label %23, label %22

22:                                               ; preds = %6
  call void (ptr, ...) @die(ptr noundef @.str.24) #12
  unreachable

23:                                               ; preds = %6
  %24 = load ptr, ptr %11, align 8, !tbaa !45
  call void @free(ptr noundef %24) #10
  %25 = load i32, ptr %7, align 4, !tbaa !4
  %26 = load i32, ptr %8, align 4, !tbaa !4
  %27 = load ptr, ptr %13, align 8, !tbaa !45
  %28 = load i64, ptr %14, align 8, !tbaa !16
  call void @write_object(i32 noundef %25, i32 noundef %26, ptr noundef %27, i64 noundef %28)
  call void @llvm.lifetime.end.p0(i64 8, ptr %14) #10
  call void @llvm.lifetime.end.p0(i64 8, ptr %13) #10
  ret void
}

; Function Attrs: nounwind uwtable
define internal ptr @lookup_object_buffer(ptr noundef %0) #0 {
  %2 = alloca ptr, align 8
  store ptr %0, ptr %2, align 8, !tbaa !92
  %3 = load ptr, ptr %2, align 8, !tbaa !92
  %4 = call ptr @lookup_decoration(ptr noundef @obj_decorate, ptr noundef %3)
  ret ptr %4
}

; Function Attrs: nounwind uwtable
define internal i32 @resolve_against_held(i32 noundef %0, ptr noundef %1, ptr noundef %2, i64 noundef %3) #0 {
  %5 = alloca i32, align 4
  %6 = alloca i32, align 4
  %7 = alloca ptr, align 8
  %8 = alloca ptr, align 8
  %9 = alloca i64, align 8
  %10 = alloca ptr, align 8
  %11 = alloca ptr, align 8
  %12 = alloca i32, align 4
  store i32 %0, ptr %6, align 4, !tbaa !4
  store ptr %1, ptr %7, align 8, !tbaa !93
  store ptr %2, ptr %8, align 8, !tbaa !45
  store i64 %3, ptr %9, align 8, !tbaa !16
  call void @llvm.lifetime.start.p0(i64 8, ptr %10) #10
  call void @llvm.lifetime.start.p0(i64 8, ptr %11) #10
  %13 = load ptr, ptr @the_repository, align 8, !tbaa !13
  %14 = load ptr, ptr %7, align 8, !tbaa !93
  %15 = call ptr @lookup_object(ptr noundef %13, ptr noundef %14)
  store ptr %15, ptr %10, align 8, !tbaa !92
  %16 = load ptr, ptr %10, align 8, !tbaa !92
  %17 = icmp ne ptr %16, null
  br i1 %17, label %19, label %18

18:                                               ; preds = %4
  store i32 0, ptr %5, align 4
  store i32 1, ptr %12, align 4
  br label %39

19:                                               ; preds = %4
  %20 = load ptr, ptr %10, align 8, !tbaa !92
  %21 = call ptr @lookup_object_buffer(ptr noundef %20)
  store ptr %21, ptr %11, align 8, !tbaa !103
  %22 = load ptr, ptr %11, align 8, !tbaa !103
  %23 = icmp ne ptr %22, null
  br i1 %23, label %25, label %24

24:                                               ; preds = %19
  store i32 0, ptr %5, align 4
  store i32 1, ptr %12, align 4
  br label %39

25:                                               ; preds = %19
  %26 = load i32, ptr %6, align 4, !tbaa !4
  %27 = load ptr, ptr %10, align 8, !tbaa !92
  %28 = load i32, ptr %27, align 4
  %29 = lshr i32 %28, 1
  %30 = and i32 %29, 7
  %31 = load ptr, ptr %11, align 8, !tbaa !103
  %32 = getelementptr inbounds nuw %struct.obj_buffer, ptr %31, i32 0, i32 0
  %33 = load ptr, ptr %32, align 8, !tbaa !105
  %34 = load ptr, ptr %11, align 8, !tbaa !103
  %35 = getelementptr inbounds nuw %struct.obj_buffer, ptr %34, i32 0, i32 1
  %36 = load i64, ptr %35, align 8, !tbaa !107
  %37 = load ptr, ptr %8, align 8, !tbaa !45
  %38 = load i64, ptr %9, align 8, !tbaa !16
  call void @resolve_delta(i32 noundef %26, i32 noundef %30, ptr noundef %33, i64 noundef %36, ptr noundef %37, i64 noundef %38)
  store i32 1, ptr %5, align 4
  store i32 1, ptr %12, align 4
  br label %39

39:                                               ; preds = %25, %24, %18
  call void @llvm.lifetime.end.p0(i64 8, ptr %11) #10
  call void @llvm.lifetime.end.p0(i64 8, ptr %10) #10
  %40 = load i32, ptr %5, align 4
  ret i32 %40
}