; Function Attrs: nounwind uwtable
define internal fastcc range(i32 0, 2) i32 @resolve_against_held(i32 noundef %0, ptr noundef nonnull %1, ptr noundef %2, i64 noundef %3) unnamed_addr #0 {
  %5 = alloca i64, align 8
  %6 = load ptr, ptr @the_repository, align 8, !tbaa !4
  %7 = tail call ptr @lookup_object(ptr noundef %6, ptr noundef nonnull %1) #14
  %.not = icmp eq ptr %7, null
  br i1 %.not, label %20, label %8

8:                                                ; preds = %4
  %9 = tail call ptr @lookup_decoration(ptr noundef nonnull @obj_decorate, ptr noundef nonnull %7) #14
  %.not12 = icmp eq ptr %9, null
  br i1 %.not12, label %20, label %10

10:                                               ; preds = %8
  %11 = load i32, ptr %7, align 4
  %12 = load ptr, ptr %9, align 8, !tbaa !86
  %13 = getelementptr inbounds nuw i8, ptr %9, i64 8
  %14 = load i64, ptr %13, align 8, !tbaa !88
  call void @llvm.lifetime.start.p0(i64 8, ptr nonnull %5) #14
  %15 = call ptr @patch_delta(ptr noundef %12, i64 noundef %14, ptr noundef %2, i64 noundef %3, ptr noundef nonnull %5) #14
  %.not.i = icmp eq ptr %15, null
  br i1 %.not.i, label %16, label %resolve_delta.exit

16:                                               ; preds = %10
  call void (ptr, ...) @die(ptr noundef nonnull @.str.24) #16
  unreachable

resolve_delta.exit:                               ; preds = %10
  %17 = lshr i32 %11, 1
  %18 = and i32 %17, 7
  call void @free(ptr noundef %2) #14
  %19 = load i64, ptr %5, align 8, !tbaa !16
  call fastcc void @write_object(i32 noundef %0, i32 noundef %18, ptr noundef %15, i64 noundef %19)
  call void @llvm.lifetime.end.p0(i64 8, ptr nonnull %5) #14
  br label %20

20:                                               ; preds = %8, %4, %resolve_delta.exit
  %.0 = phi i32 [ 1, %resolve_delta.exit ], [ 0, %4 ], [ 0, %8 ]
  ret i32 %.0
}